; Function Attrs: mustprogress nounwind uwtable
define hidden noundef zeroext i1 @_ZN30G1MonotonicArenaFreeMemoryTask20cleanup_return_infosEv(ptr nocapture noundef nonnull align 8 dereferenceable(120) %0) local_unnamed_addr #2 align 2 {
  %2 = getelementptr inbounds i8, ptr %0, i64 112
  %3 = load ptr, ptr %2, align 8
  %4 = load i32, ptr %3, align 4
  %5 = icmp sgt i32 %4, 0
  br i1 %5, label %.lr.ph, label %._crit_edge

.lr.ph:                                           ; preds = %1, %14
  %6 = phi i32 [ %15, %14 ], [ %4, %1 ]
  %7 = phi ptr [ %16, %14 ], [ %3, %1 ]
  %indvars.iv = phi i64 [ %indvars.iv.next, %14 ], [ 0, %1 ]
  %8 = getelementptr inbounds i8, ptr %7, i64 8
  %9 = load ptr, ptr %8, align 8
  %10 = getelementptr inbounds ptr, ptr %9, i64 %indvars.iv
  %11 = load ptr, ptr %10, align 8
  %12 = icmp eq ptr %11, null
  br i1 %12, label %14, label %13

13:                                               ; preds = %.lr.ph
  tail call void @_Z8FreeHeapPv(ptr noundef nonnull %11) #14
  %.pre = load ptr, ptr %2, align 8
  %.pre10 = load i32, ptr %.pre, align 4
  br label %14

14:                                               ; preds = %.lr.ph, %13
  %15 = phi i32 [ %6, %.lr.ph ], [ %.pre10, %13 ]
  %16 = phi ptr [ %7, %.lr.ph ], [ %.pre, %13 ]
  %indvars.iv.next = add nuw nsw i64 %indvars.iv, 1
  %17 = sext i32 %15 to i64
  %18 = icmp slt i64 %indvars.iv.next, %17
  br i1 %18, label %.lr.ph, label %._crit_edge, !llvm.loop !12

._crit_edge:                                      ; preds = %14, %1
  %.lcssa = phi ptr [ %3, %1 ], [ %16, %14 ]
  store i32 0, ptr %.lcssa, align 4
  %19 = getelementptr inbounds i8, ptr %.lcssa, i64 4
  %20 = load i32, ptr %19, align 4
  %21 = icmp eq i32 %20, 0
  br i1 %21, label %25, label %.loopexit.i.i.i

.loopexit.i.i.i:                                  ; preds = %._crit_edge
  %22 = getelementptr inbounds i8, ptr %.lcssa, i64 8
  %23 = load ptr, ptr %22, align 8
  store i32 0, ptr %19, align 4
  %.not.i.i.i = icmp eq ptr %23, null
  br i1 %.not.i.i.i, label %24, label %.loopexit.thread.i.i.i

.loopexit.thread.i.i.i:                           ; preds = %.loopexit.i.i.i
  tail call void @_ZN27GrowableArrayCHeapAllocator10deallocateEPv(ptr noundef nonnull %23) #14
  br label %24

24:                                               ; preds = %.loopexit.thread.i.i.i, %.loopexit.i.i.i
  store ptr null, ptr %22, align 8
  br label %25

25:                                               ; preds = %24, %._crit_edge
  tail call void @_ZN6AnyObjdlEPv(ptr noundef nonnull %.lcssa) #14
  store ptr null, ptr %2, align 8
  ret i1 false
}